(dp0
(I94
I123
tp1
Vmillimeter
p2
s(I1762
I5488
tp3
Vcheapness
p4
s(I3946
I5345
tp5
Vcriminal
p6
s(I1501
I3199
tp7
Vjoke
p8
s(I825
I5184
tp9
Vduty
p10
s(I749
I6045
tp11
Vchap
p12
s(I125
I3534
tp13
Vchump
p14
s(I3387
I5417
tp15
Vsmile
p16
s(I7305
I8504
tp17
Vcareer
p18
s(I1593
I6007
tp19
Vma
p20
s(I4726
I8418
tp21
Vbad
p22
s(I617
I8724
tp23
Vreferee
p24
s(I86
I3980
tp25
Vlimousine
p26
s(I1212
I6588
tp27
Vadolescent
p28
s(I838
I5984
tp29
Vglamor
p30
s(I662
I8448
tp31
Vsubject
p32
s(I263
I2725
tp33
Vecstasy
p34
s(I48
I5999
tp35
Vhate
p36
s(I4780
I6647
tp37
Vcry
p38
s(I2471
I4550
tp39
Vlab
p40
s(I5345
I7948
tp41
Vcriminal
p42
s(I4206
I6579
tp43
Vdame
p44
s(I1768
I6550
tp45
Vlumberman
p46
s(I2
I3404
tp47
Vsleep
p48
s(I1110
I7115
tp49
Vsneeze
p50
s(I3899
I6249
tp51
Vtemper
p52
s(I2072
I2708
tp53
Vrustle
p54
s(I2087
I4181
tp55
Vnickel
p56
s(I2958
I3134
tp57
Vfeature
p58
s(I3688
I4171
tp59
Vmatter
p60
s(I4514
I5182
tp61
Vball
p62
s(I905
I4086
tp63
Vsemen
p64
s(I2383
I4934
tp65
Vhypocrite
p66
s(I2279
I7184
tp67
Vgrandma
p68
s(I3639
I7526
tp69
Vplan
p70
s(I3059
I8218
tp71
Vrival
p72
s(I46
I8733
tp73
Vhide
p74
s(I1867
I5323
tp75
Vdad
p76
s(I536
I3643
tp77
Vpurpose
p78
s(I1186
I5166
tp79
Vsphere
p80
s(I91
I3623
tp81
Vcraze
p82
s(I4304
I8064
tp83
Vpursuit
p84
s(I2944
I8714
tp85
Vgelatin
p86
s(I3732
I7304
tp87
Vshingle
p88
s(I1272
I3201
tp89
Vlimelight
p90
s(I1674
I1867
tp91
Vdad
p92
s(I1159
I5992
tp93
Vvicinity
p94
s(I8361
I8505
tp95
Vmaterial
p96
s(I395
I1674
tp97
Vdad
p98
s(I3817
I4822
tp99
Vspring
p100
s(I6458
I6591
tp101
Vaccountant
p102
s(I1954
I3488
tp103
Vinformation
p104
s(I4836
I6230
tp105
Vjean
p106
s(I2451
I6706
tp107
Vbaggage
p108
s(I4757
I5947
tp109
Vailment
p110
s(I2871
I8694
tp111
Vdefender
p112
s(I4075
I5308
tp113
Vmanner
p114
s(I4195
I4370
tp115
Vdrip
p116
s(I4075
I5211
tp117
Vmanner
p118
s(I1081
I3606
tp119
Vappreciation
p120
s(I4197
I4584
tp121
Vknock
p122
s(I1073
I3205
tp123
Vdirt
p124
s(I2536
I6871
tp125
Vmanner
p126
s(I1599
I7790
tp127
Vbuddy
p128
s(I4034
I7966
tp129
Vstrut
p130
s(I2689
I6319
tp131
Vphotograph
p132
s(I1867
I8032
tp133
Vdad
p134
s(I2419
I5612
tp135
Vballad
p136
s(I358
I3643
tp137
Vpurpose
p138
s(I3226
I5552
tp139
Vcaptivity
p140
s(I4280
I7691
tp141
Vspouse
p142
s(I7081
I7091
tp143
Vdiscord
p144
s(I471
I2514
tp145
Vasset
p146
s(I6004
I6170
tp147
Vcrying
p148
s(I1375
I7207
tp149
Vpornography
p150
s(I7505
I7773
tp151
Vmark
p152
s(I1030
I1654
tp153
Vfreak
p154
s(I1233
I7724
tp155
Vfall
p156
s(I1882
I2663
tp157
Vviolin
p158
s(I5764
I7202
tp159
Vintestine
p160
s(I7743
I8321
tp161
Vrudiment
p162
s(I987
I5184
tp163
Vduty
p164
s(I1397
I6287
tp165
Vmacintosh
p166
s(I3031
I4962
tp167
Vview
p168
s(I4373
I8419
tp169
Vcunt
p170
s(I419
I2719
tp171
Vprisoner
p172
s(I5928
I6003
tp173
Vma
p174
s(I530
I2131
tp175
Veternity
p176
s(I1072
I8079
tp177
Vundertaking
p178
s(I3393
I5533
tp179
Vdetention
p180
s(I1159
I4246
tp181
Vvicinity
p182
s(I5211
I5308
tp183
Vmanner
p184
s(I2193
I7539
tp185
Vgrief
p186
s(I4576
I5109
tp187
Vfad
p188
s(I395
I7138
tp189
Vdad
p190
s(I726
I7866
tp191
Vtwilight
p192
s(I794
I4163
tp193
Vanteroom
p194
s(I4273
I8053
tp195
Vmistake
p196
s(I331
I3502
tp197
Vadventure
p198
s(I2306
I7790
tp199
Vbuddy
p200
s(I960
I3778
tp201
Vperson
p202
s(I3415
I4306
tp203
Vmonotony
p204
s(I4335
I4817
tp205
Vrecoil
p206
s(I3443
I6495
tp207
Vtan
p208
s(I5507
I6733
tp209
Vmovie
p210
s(I3834
I7709
tp211
Vrug
p212
s(I1314
I4117
tp213
Vglitter
p214
s(I4934
I6679
tp215
Vhypocrite
p216
s(I4709
I8448
tp217
Vsubject
p218
s(I4419
I7229
tp219
Vboom
p220
s(I3273
I5432
tp221
Vchow
p222
s(I6670
I7389
tp223
Vreverie
p224
s(I2911
I7718
tp225
Vtitanium
p226
s(I4830
I5440
tp227
Vrunaway
p228
s(I1883
I2424
tp229
Vdisregard
p230
s(I950
I7305
tp231
Vcareer
p232
s(I1944
I3106
tp233
Vgrandfather
p234
s(I1375
I6658
tp235
Vpornography
p236
s(I905
I5945
tp237
Vsemen
p238
s(I5988
I8384
tp239
Vmeasure
p240
s(I3452
I8465
tp241
Vrotter
p242
s(I2536
I4075
tp243
Vmanner
p244
s(I1354
I1593
tp245
Vma
p246
s(I8441
I8749
tp247
Vbasement
p248
s(I874
I6036
tp249
Vidiot
p250
s(I1735
I4085
tp251
Vscribble
p252
s(I2383
I6679
tp253
Vhypocrite
p254
s(I4638
I8739
tp255
Vhood
p256
s(I42
I6448
tp257
Vyak
p258
s(I729
I7128
tp259
Vresignation
p260
s(I54
I8182
tp261
Vswagman
p262
s(I678
I768
tp263
Vtopographic_point
p264
s(I2172
I7477
tp265
Vbartender
p266
s(I2150
I5771
tp267
Vpercentage
p268
s(I2446
I6714
tp269
Vgrandma
p270
s(I4496
I7214
tp271
Vcurse
p272
s(I2033
I3984
tp273
Vhippie
p274
s(I239
I1007
tp275
Vkingdom
p276
s(I2143
I3553
tp277
Videa
p278
s(I2160
I7974
tp279
Varoma
p280
s(I660
I5431
tp281
Vlaugh
p282
s(I42
I1502
tp283
Vyak
p284
s(I3416
I8509
tp285
Vposition
p286
s(I3920
I8518
tp287
Vpioneer
p288
s(I2003
I8026
tp289
Vsatan
p290
s(I391
I6637
tp291
Vopportunity
p292
s(I2187
I3672
tp293
Vbanquet
p294
s(I1674
I8032
tp295
Vdad
p296
s(I2060
I6140
tp297
Vremark
p298
s(I2460
I4466
tp299
Vvictory
p300
s(I2912
I3578
tp301
Vcar
p302
s(I5323
I7138
tp303
Vdad
p304
s(I1845
I7003
tp305
Vevening
p306
s(I7728
I7867
tp307
Veden
p308
s(I2500
I3643
tp309
Vpurpose
p310
s(I3637
I4095
tp311
Vpiglet
p312
s(I127
I1721
tp313
Vattempt
p314
s(I670
I3812
tp315
Vsofa
p316
s(I1663
I2453
tp317
Vexpressway
p318
s(I975
I4990
tp319
Vdirector
p320
s(I540
I7539
tp321
Vgrief
p322
s(I6045
I7675
tp323
Vchap
p324
s(I251
I567
tp325
Vpanic
p326
s(I2746
I3032
tp327
Vturf
p328
s(I2823
I4807
tp329
Vsting
p330
s(I170
I7764
tp331
Vace
p332
s(I2340
I4419
tp333
Vboom
p334
s(I2536
I5308
tp335
Vmanner
p336
s(I5437
I6173
tp337
Vnoon
p338
s(I693
I3669
tp339
Vjail
p340
s(I3946
I8359
tp341
Vcriminal
p342
s(I1502
I6448
tp343
Vyak
p344
s(I1292
I3056
tp345
Vmystery
p346
s(I2807
I6011
tp347
Vjewelry
p348
s(I673
I1355
tp349
Vmaestro
p350
s(I1162
I7400
tp351
Vpast
p352
s(I5338
I7502
tp353
Vthousand
p354
s(I670
I7919
tp355
Vsofa
p356
s(I7895
I8695
tp357
Vscheme
p358
s(I3397
I6424
tp359
Vfagot
p360
s(I2316
I7173
tp361
Vdoctor
p362
s(I1990
I6777
tp363
Vmisdemeanor
p364
s(I5276
I6017
tp365
Vrefrigerator
p366
s(I1599
I2306
tp367
Vbuddy
p368
s(I1398
I1564
tp369
Vwage
p370
s(I1781
I5772
tp371
Vkind
p372
s(I5162
I5462
tp373
Vwhitey
p374
s(I4337
I6737
tp375
Vclasp
p376
s(I4360
I5487
tp377
Vbullet
p378
s(I1790
I6118
tp379
Vcrop
p380
s(I1112
I5458
tp381
Vneighbor
p382
s(I4950
I8027
tp383
Vcouple
p384
s(I5171
I5506
tp385
Vdawn
p386
s(I395
I8032
tp387
Vdad
p388
s(I385
I8077
tp389
Vbent
p390
s(I6714
I7184
tp391
Vgrandma
p392
s(I402
I3863
tp393
Vrevolver
p394
s(I4571
I6426
tp395
Vfit
p396
s(I950
I8504
tp397
Vcareer
p398
s(I1868
I4891
tp399
Vclang
p400
s(I5964
I7746
tp401
Vaggravation
p402
s(I7019
I8543
tp403
Vwriter
p404
s(I5610
I7974
tp405
Varoma
p406
s(I662
I4709
tp407
Vsubject
p408
s(I1889
I6360
tp409
Vatmosphere
p410
s(I540
I2193
tp411
Vgrief
p412
s(I3140
I3526
tp413
Vgangster
p414
s(I1783
I1788
tp415
Vbaby
p416
s(I1705
I3161
tp417
Vresidence
p418
s(I6412
I8551
tp419
Vsadness
p420
s(I4584
I5732
tp421
Vknock
p422
s(I377
I5355
tp423
Vbrow
p424
s(I854
I6743
tp425
Vmister
p426
s(I762
I5396
tp427
Vremainder
p428
s(I805
I4496
tp429
Vcurse
p430
s(I1002
I4938
tp431
Vpile
p432
s(I1050
I7229
tp433
Vboom
p434
s(I3946
I7948
tp435
Vcriminal
p436
s(I4116
I6045
tp437
Vchap
p438
s(I3654
I8694
tp439
Vdefender
p440
s(I5704
I6734
tp441
Vinjury
p442
s(I765
I4638
tp443
Vhood
p444
s(I3812
I7919
tp445
Vsofa
p446
s(I558
I4559
tp447
Vadieu
p448
s(I518
I1486
tp449
Vcast
p450
s(I3968
I8700
tp451
Vresentment
p452
s(I6658
I7207
tp453
Vpornography
p454
s(I3568
I6346
tp455
Vasshole
p456
s(I446
I4821
tp457
Vasshole
p458
s(I3106
I7730
tp459
Vgrandfather
p460
s(I3452
I8708
tp461
Vrotter
p462
s(I1136
I8527
tp463
Vpistol
p464
s(I1347
I1937
tp465
Vgirl
p466
s(I3083
I8019
tp467
Vdrunkard
p468
s(I1674
I7138
tp469
Vdad
p470
s(I1610
I5790
tp471
Vplay
p472
s(I5323
I8032
tp473
Vdad
p474
s(I3972
I6245
tp475
Vkiss
p476
s(I2530
I7062
tp477
Vminiskirt
p478
s(I8228
I8565
tp479
Vfinale
p480
s(I343
I3239
tp481
Vsludge
p482
s(I156
I4856
tp483
Vrumor
p484
s(I858
I3534
tp485
Vchump
p486
s(I750
I4255
tp487
Vmaid
p488
s(I3205
I7883
tp489
Vdirt
p490
s(I6197
I6495
tp491
Vtan
p492
s(I1549
I4905
tp493
Vcheep
p494
s(I1728
I5896
tp495
Vloot
p496
s(I1757
I8569
tp497
Vamour_propre
p498
s(I4086
I5945
tp499
Vsemen
p500
s(I2249
I4559
tp501
Vadieu
p502
s(I2577
I4270
tp503
Vplain
p504
s(I941
I2630
tp505
Vaftermath
p506
s(I1446
I4473
tp507
Vsecond
p508
s(I2729
I8376
tp509
Vluster
p510
s(I1179
I8343
tp511
Vcomponent
p512
s(I882
I2892
tp513
Vdinner_jacket
p514
s(I2902
I8323
tp515
Vnative
p516
s(I874
I1095
tp517
Vidiot
p518
s(I2017
I6424
tp519
Vfagot
p520
s(I4646
I5813
tp521
Vtune
p522
s(I954
I6116
tp523
Vlookout
p524
s(I155
I7909
tp525
Vlease
p526
s(I4060
I6829
tp527
Vlunatic
p528
s(I1234
I4638
tp529
Vhood
p530
s(I125
I858
tp531
Vchump
p532
s(I909
I7764
tp533
Vace
p534
s(I6746
I7183
tp535
Vpassage
p536
s(I2446
I7184
tp537
Vgrandma
p538
s(I241
I1354
tp539
Vma
p540
s(I1158
I3936
tp541
Vbuttocks
p542
s(I4055
I7030
tp543
Vchild
p544
s(I1337
I3100
tp545
Vconsequence
p546
s(I3443
I6197
tp547
Vtan
p548
s(I1354
I5928
tp549
Vma
p550
s(I241
I6003
tp551
Vma
p552
s(I968
I2306
tp553
Vbuddy
p554
s(I594
I5506
tp555
Vdawn
p556
s(I341
I5724
tp557
Vassurance
p558
s(I4480
I7815
tp559
Vinternet
p560
s(I1347
I5170
tp561
Vgirl
p562
s(I5328
I6383
tp563
Vpot
p564
s(I2871
I3654
tp565
Vdefender
p566
s(I5863
I6670
tp567
Vreverie
p568
s(I3419
I8649
tp569
Vbully
p570
s(I4075
I6871
tp571
Vmanner
p572
s(I2566
I3009
tp573
Vlurch
p574
s(I4273
I7007
tp575
Vmistake
p576
s(I805
I7214
tp577
Vcurse
p578
s(I60
I7630
tp579
Vtornado
p580
s(I4
I6485
tp581
Vintegrity
p582
s(I1522
I6099
tp583
Vanguish
p584
s(I7007
I8053
tp585
Vmistake
p586
s(I1674
I5323
tp587
Vdad
p588
s(I3152
I4311
tp589
Vboodle
p590
s(I262
I4155
tp591
Vbait
p592
s(I358
I2500
tp593
Vpurpose
p594
s(I6202
I7331
tp595
Vanimal
p596
s(I749
I7675
tp597
Vchap
p598
s(I2142
I5759
tp599
Vvery_important_person
p600
s(I1829
I6560
tp601
Vsister
p602
s(I794
I4618
tp603
Vanteroom
p604
s(I4014
I4151
tp605
Vbend
p606
s(I5318
I5416
tp607
Vrailway
p608
s(I2639
I6325
tp609
Vcalamity
p610
s(I4192
I5883
tp611
Vsweetheart
p612
s(I241
I1593
tp613
Vma
p614
s(I2279
I2446
tp615
Vgrandma
p616
s(I340
I7606
tp617
Vlotto
p618
s(I2001
I4060
tp619
Vlunatic
p620
s(I1867
I7138
tp621
Vdad
p622
s(I2844
I6153
tp623
Vblizzard
p624
s(I594
I5171
tp625
Vdawn
p626
s(I8530
I8649
tp627
Vbully
p628
s(I3417
I7440
tp629
Vtherapist
p630
s(I2316
I2554
tp631
Vdoctor
p632
s(I968
I1599
tp633
Vbuddy
p634
s(I536
I2500
tp635
Vpurpose
p636
s(I1445
I7321
tp637
Vtouch
p638
s(I821
I1695
tp639
Vforeigner
p640
s(I841
I6181
tp641
Vdunce
p642
s(I1773
I4961
tp643
Vcrap
p644
s(I2801
I3208
tp645
Vcenter
p646
s(I2017
I3397
tp647
Vfagot
p648
s(I3321
I4108
tp649
Vrepose
p650
s(I4604
I5128
tp651
Vmagazine
p652
s(I4452
I4794
tp653
Vslap
p654
s(I914
I2322
tp655
Vexpression
p656
s(I6003
I6007
tp657
Vma
p658
s(I558
I2249
tp659
Vadieu
p660
s(I824
I5290
tp661
Vinside
p662
s(I4246
I5992
tp663
Vvicinity
p664
s(I1860
I6717
tp665
Vpound
p666
s(I5452
I7330
tp667
Vrock
p668
s(I249
I8299
tp669
Vphase
p670
s(I4214
I5904
tp671
Vdestiny
p672
s(I3970
I7095
tp673
Vcoffin
p674
s(I5645
I7816
tp675
Vairplane
p676
s(I4340
I7570
tp677
Vdeath
p678
s(I749
I4116
tp679
Vchap
p680
s(I4116
I7675
tp681
Vchap
p682
s(I4124
I5451
tp683
Vstarship
p684
s(I2126
I2861
tp685
Vspeaker
p686
s(I7138
I8032
tp687
Vdad
p688
s(I3119
I6478
tp689
Vbase
p690
s(I1000
I5298
tp691
Vpalette
p692
s(I234
I511
tp693
Vthree
p694
s(I3343
I6491
tp695
Valuminum
p696
s(I5811
I6601
tp697
Vliquor
p698
s(I395
I5323
tp699
Vdad
p700
s(I6538
I6675
tp701
Vdebris
p702
s(I2639
I3382
tp703
Vcalamity
p704
s(I2818
I3905
tp705
Vimpression
p706
s(I5602
I6698
tp707
Vfamily
p708
s(I2006
I7748
tp709
Vmarriage
p710
s(I2609
I7576
tp711
Vcheck
p712
s(I1675
I1742
tp713
Vlens
p714
s(I3628
I7978
tp715
Venchantment
p716
s(I722
I2868
tp717
Vanswer
p718
s(I4445
I7857
tp719
Vdaze
p720
s(I3230
I4210
tp721
Vlonging
p722
s(I2188
I4833
tp723
Vhush
p724
s(I532
I6168
tp725
Vfrog
p726
s(I4163
I4618
tp727
Vanteroom
p728
s(I1140
I2696
tp729
Vcase
p730
s(I1354
I6007
tp731
Vma
p732
s(I3875
I8014
tp733
Vhaunt
p734
s(I559
I7116
tp735
Vbattle
p736
s(I3318
I3842
tp737
Vdainty
p738
s(I7167
I8584
tp739
Vpotato
p740
s(I1944
I7730
tp741
Vgrandfather
p742
s(I2762
I3025
tp743
Vfabric
p744
s(I642
I4368
tp745
Vblack
p746
s(I5863
I7389
tp747
Vreverie
p748
s(I1073
I7883
tp749
Vdirt
p750
s(I417
I5245
tp751
Vtheater
p752
s(I127
I651
tp753
Vattempt
p754
s(I1398
I3513
tp755
Vwage
p756
s(I651
I1721
tp757
Vattempt
p758
s(I3340
I6848
tp759
Vtoilet
p760
s(I1593
I6003
tp761
Vma
p762
s(I2904
I5997
tp763
Vscope
p764
s(I2057
I4326
tp765
Vblink_of_an_eye
p766
s(I4504
I7306
tp767
Vathlete
p768
s(I3523
I4910
tp769
Vhell
p770
s(I7339
I7849
tp771
Vyear
p772
s(I2920
I7213
tp773
Vthief
p774
s(I4670
I5742
tp775
Vpalace
p776
s(I1209
I7461
tp777
Vmorning
p778
s(I3826
I3839
tp779
Vreligion
p780
s(I2554
I7173
tp781
Vdoctor
p782
s(I2403
I5925
tp783
Vaffair
p784
s(I8521
I8576
tp785
Vbraid
p786
s(I1911
I2172
tp787
Vbartender
p788
s(I3046
I7390
tp789
Vwaist
p790
s(I3254
I4274
tp791
Vvirginia
p792
s(I358
I536
tp793
Vpurpose
p794
s(I703
I4596
tp795
Varrow
p796
s(I1513
I6737
tp797
Vclasp
p798
s(I5291
I7088
tp799
Vhusband
p800
s(I241
I5928
tp801
Vma
p802
s(I1234
I8739
tp803
Vhood
p804
s(I6132
I7198
tp805
Vdegree
p806
s(I672
I7084
tp807
Vrhinoceros
p808
s(I2215
I5777
tp809
Vmotivation
p810
s(I1634
I6949
tp811
Vreporter
p812
s(I1134
I5218
tp813
Vtelevision
p814
s(I1666
I7962
tp815
Vseller
p816
s(I2618
I7320
tp817
Vstate
p818
s(I500
I5398
tp819
Vspirit
p820
s(I5866
I6576
tp821
Vpancake
p822
s(I2136
I6202
tp823
Vanimal
p824
s(I3568
I4821
tp825
Vasshole
p826
s(I1513
I4337
tp827
Vclasp
p828
s(I1851
I6056
tp829
Vparlor
p830
s(I2496
I2679
tp831
Vsuburb
p832
s(I258
I1618
tp833
Vaunt
p834
s(I501
I4363
tp835
Vslope
p836
s(I2204
I5167
tp837
Vstairway
p838
s(I2912
I4061
tp839
Vcar
p840
s(I4505
I5545
tp841
Vglance
p842
s(I6116
I7723
tp843
Vlookout
p844
s(I6996
I7030
tp845
Vchild
p846
s(I971
I2736
tp847
Vthunderbolt
p848
s(I2160
I5610
tp849
Varoma
p850
s(I2279
I6714
tp851
Vgrandma
p852
s(I5362
I7896
tp853
Vconcern
p854
s(I2004
I8523
tp855
Vbias
p856
s(I1323
I4096
tp857
Vbeep
p858
s(I842
I4149
tp859
Vsunset
p860
s(I825
I987
tp861
Vduty
p862
s(I4821
I6346
tp863
Vasshole
p864
s(I241
I6007
tp865
Vma
p866
s(I1543
I3420
tp867
Vdark
p868
s(I3661
I4491
tp869
Vsmoke
p870
s(I2272
I5087
tp871
Vjesus
p872
s(I4880
I5574
tp873
Vlawyer
p874
s(I639
I4236
tp875
Vfellow
p876
s(I2136
I7331
tp877
Vanimal
p878
s(I1337
I2595
tp879
Vconsequence
p880
s(I4049
I6660
tp881
Vmotorcycle
p882
s(I5928
I6007
tp883
Vma
p884
s(I1911
I7477
tp885
Vbartender
p886
s(I1050
I2340
tp887
Vboom
p888
s(I3382
I6325
tp889
Vcalamity
p890
s(I765
I1234
tp891
Vhood
p892
s(I395
I1867
tp893
Vdad
p894
s(I5345
I8359
tp895
Vcriminal
p896
s(I6339
I6452
tp897
Vmicrophone
p898
s(I446
I3568
tp899
Vasshole
p900
s(I3236
I6018
tp901
Vsummer
p902
s(I848
I8728
tp903
Vshooting
p904
s(I520
I8090
tp905
Vbreast
p906
s(I8465
I8708
tp907
Vrotter
p908
s(I2840
I4628
tp909
Vbustle
p910
s(I1095
I6036
tp911
Vidiot
p912
s(I954
I7723
tp913
Vlookout
p914
s(I5211
I6871
tp915
Vmanner
p916
s(I4558
I7021
tp917
Vammunition
p918
s(I1968
I3631
tp919
Vphysique
p920
s(I4989
I8547
tp921
Vwalk
p922
s(I4303
I4529
tp923
Vsnake
p924
s(I3419
I8530
tp925
Vbully
p926
s(I3689
I6733
tp927
Vmovie
p928
s(I4197
I5732
tp929
Vknock
p930
s(I6843
I7252
tp931
Vplaything
p932
s(I5308
I6871
tp933
Vmanner
p934
s(I3446
I4727
tp935
Vdoughnut
p936
s(I2536
I5211
tp937
Vmanner
p938
s(I5326
I7945
tp939
Vflicker
p940
s(I2340
I7229
tp941
Vboom
p942
s(I2145
I6320
tp943
Vcommand
p944
s(I3689
I5507
tp945
Vmovie
p946
s(I2846
I3114
tp947
Vdie
p948
s(I2850
I5177
tp949
Vmetro
p950
s(I5374
I6738
tp951
Vhideout
p952
s(I6420
I7451
tp953
Voccupation
p954
s(I2930
I5805
tp955
Vwinter
p956
s(I2178
I4998
tp957
Vbulge
p958
s(I3578
I4061
tp959
Vcar
p960
s(I1593
I5928
tp961
Vma
p962
s(I1564
I3513
tp963
Vwage
p964
s(I61
I893
tp965
Vdormitory
p966
s(I1437
I3251
tp967
Vballyhoo
p968
s(I170
I909
tp969
Vace
p970
s(I1050
I4419
tp971
Vboom
p972
s(I4180
I5067
tp973
Vbrink
p974
s(I4924
I6971
tp975
Vsunlight
p976
s(I5741
I8222
tp977
Vmenace
p978
s(I1036
I2268
tp979
Vpit
p980
s(I7948
I8359
tp981
Vcriminal
p982
s(I1937
I5170
tp983
Vgirl
p984
s(I2229
I8660
tp985
Vcocoa
p986
s(I6904
I7191
tp987
Vchoice
p988
s(I968
I7790
tp989
Vbuddy
p990
s(I8396
I8710
tp991
Vcover_girl
p992
s(I2270
I3872
tp993
Vmoonlight
p994
s(I2782
I8308
tp995
Vwhiskey
p996
s(I552
I5760
tp997
Vshop
p998
s(I6479
I6890
tp999
Vprostitute
p1000
s(I446
I6346
tp1001
Vasshole
p1002
s(I2595
I3100
tp1003
Vconsequence
p1004
s(I765
I8739
tp1005
Vhood
p1006
s(I2384
I3206
tp1007
Vtelephone
p1008
s(I7103
I7805
tp1009
Vdespair
p1010
s(I2466
I2984
tp1011
Vhallway
p1012
s(I1620
I4192
tp1013
Vsweetheart
p1014
s(I4055
I6996
tp1015
Vchild
p1016
s(I4774
I7508
tp1017
Vprototype
p1018
s(I4461
I8656
tp1019
Vnigger
p1020
s(I6203
I7357
tp1021
Vbandanna
p1022
s(I2594
I6437
tp1023
Vjoint
p1024
s(I7269
I7554
tp1025
Vsupporter
p1026
s(I1620
I5883
tp1027
Vsweetheart
p1028
s(I3181
I7089
tp1029
Vvacation
p1030
s(I1922
I5887
tp1031
Vfathead
p1032
s(I293
I5804
tp1033
Vbarroom
p1034
s(I1354
I6003
tp1035
Vma
p1036
s(I2557
I4939
tp1037
Vswamp
p1038
s(I691
I5753
tp1039
Vnarrative
p1040
s(I2001
I6829
tp1041
Vlunatic
p1042
s(I5019
I7286
tp1043
Vguy
p1044
s.