(dp0
(I1116
I1618
tp1
Vnightlong
p2
s(I1955
I2809
tp3
Vincredible
p4
s(I1275
I2073
tp5
Vobscure
p6
s(I1484
I1848
tp7
Vapparent
p8
s(I899
I1087
tp9
Vicky
p10
s(I1207
I2670
tp11
Vbrassy
p12
s(I2727
I3317
tp13
Vageless
p14
s(I1074
I2408
tp15
Vbang-up
p16
s(I480
I2408
tp17
Vbang-up
p18
s(I185
I971
tp19
Vcasual
p20
s(I2305
I2622
tp21
Vill
p22
s(I1584
I1938
tp23
Vill-famed
p24
s(I1647
I1766
tp25
Vgrateful
p26
s(I1668
I3139
tp27
Veveryday
p28
s(I1599
I2593
tp29
Vbarbarous
p30
s(I2321
I3364
tp31
Vconceited
p32
s(I225
I2335
tp33
Vboggy
p34
s(I197
I777
tp35
Vall_right
p36
s(I1571
I3201
tp37
Vicky
p38
s(I989
I1012
tp39
Vaureate
p40
s(I391
I2808
tp41
Vcockamamie
p42
s(I480
I1074
tp43
Vbang-up
p44
s(I2319
I2925
tp45
Vgay
p46
s(I2621
I2656
tp47
Vparticular
p48
s(I2444
I3280
tp49
Vbitty
p50
s(I1693
I3225
tp51
Vdirty
p52
s(I88
I3317
tp53
Vageless
p54
s(I1129
I2444
tp55
Vbitty
p56
s(I734
I3270
tp57
Vbally
p58
s(I303
I1196
tp59
Vhairy
p60
s(I722
I2294
tp61
Vcardinal
p62
s(I18
I1199
tp63
Vdelectable
p64
s(I937
I3459
tp65
Vtalented
p66
s(I212
I2273
tp67
Vdevilish
p68
s(I223
I1499
tp69
Vchopped
p70
s(I1034
I1545
tp71
Vunfair
p72
s(I133
I3227
tp73
Vcryptic
p74
s(I343
I2884
tp75
Valone
p76
s(I60
I228
tp77
Vdisabled
p78
s(I899
I1571
tp79
Vicky
p80
s(I2328
I2374
tp81
Vblond
p82
s(I2569
I2883
tp83
Vimmaculate
p84
s(I1274
I1596
tp85
Vcurious
p86
s(I500
I512
tp87
Vbare
p88
s(I1449
I2507
tp89
Vfrigid
p90
s(I1636
I2914
tp91
Veighteenth
p92
s(I1087
I1571
tp93
Vicky
p94
s(I1571
I2052
tp95
Vicky
p96
s(I465
I1201
tp97
Vbesotted
p98
s(I1284
I3147
tp99
Vexclusive
p100
s(I1737
I2727
tp101
Vageless
p102
s(I88
I1737
tp103
Vageless
p104
s(I1125
I3237
tp105
Vcunning
p106
s(I1465
I2002
tp107
Vhuge
p108
s(I2336
I2832
tp109
Vbantam
p110
s(I2181
I3464
tp111
Vdebonair
p112
s(I895
I3338
tp113
Vineluctable
p114
s(I1737
I3317
tp115
Vageless
p116
s(I3257
I3288
tp117
Vcoarse
p118
s(I934
I2144
tp119
Vdeserving
p120
s(I68
I2896
tp121
Vblue
p122
s(I549
I2335
tp123
Vboggy
p124
s(I605
I1518
tp125
Vred
p126
s(I1248
I1598
tp127
Vbum
p128
s(I86
I574
tp129
Vferocious
p130
s(I605
I1810
tp131
Vred
p132
s(I1613
I3364
tp133
Vconceited
p134
s(I1388
I1574
tp135
Vgrim
p136
s(I391
I2135
tp137
Vcockamamie
p138
s(I1395
I2831
tp139
Vbouffant
p140
s(I197
I468
tp141
Vall_right
p142
s(I1685
I1835
tp143
Vbrumous
p144
s(I2444
I2952
tp145
Vbitty
p146
s(I1332
I3470
tp147
Vhurt
p148
s(I2450
I2743
tp149
Vbigger
p150
s(I500
I2477
tp151
Vbare
p152
s(I2836
I3371
tp153
Vpermanent
p154
s(I88
I2727
tp155
Vageless
p156
s(I1503
I1668
tp157
Veveryday
p158
s(I1285
I1617
tp159
Vsixth
p160
s(I1518
I1810
tp161
Vred
p162
s(I1154
I1281
tp163
Vgrey
p164
s(I1202
I2810
tp165
Vfantastic
p166
s(I1408
I1754
tp167
Vwide
p168
s(I1579
I2810
tp169
Vfantastic
p170
s(I1974
I2533
tp171
Vfifteenth
p172
s(I2405
I2907
tp173
Vaverage
p174
s(I540
I1818
tp175
Vreligious
p176
s(I772
I1406
tp177
Vace
p178
s(I5
I2312
tp179
Vephemeral
p180
s(I1334
I3065
tp181
Vfifty
p182
s(I996
I2760
tp183
Ventire
p184
s(I86
I219
tp185
Vferocious
p186
s(I257
I1294
tp187
Vcharming
p188
s(I2408
I2880
tp189
Vbang-up
p190
s(I550
I1429
tp191
Vblasted
p192
s(I225
I549
tp193
Vboggy
p194
s(I582
I2075
tp195
Venormous
p196
s(I1202
I1579
tp197
Vfantastic
p198
s(I1087
I3201
tp199
Vicky
p200
s(I605
I1555
tp201
Vred
p202
s(I1613
I2321
tp203
Vconceited
p204
s(I772
I2997
tp205
Vace
p206
s(I2521
I2824
tp207
Vedgy
p208
s(I1101
I1599
tp209
Vbarbarous
p210
s(I1297
I2865
tp211
Vcomfortable
p212
s(I1165
I2219
tp213
Vrocky
p214
s(I1074
I2880
tp215
Vbang-up
p216
s(I314
I405
tp217
Vseventh
p218
s(I480
I2880
tp219
Vbang-up
p220
s(I544
I565
tp221
Vspare
p222
s(I2532
I2803
tp223
Vslender
p224
s(I51
I1798
tp225
Vsmall
p226
s(I82
I1698
tp227
Vslippery
p228
s(I2052
I3201
tp229
Vicky
p230
s(I450
I3041
tp231
Vbare
p232
s(I694
I2472
tp233
Vcolor
p234
s(I2845
I3451
tp235
Vill-fed
p236
s(I1138
I3444
tp237
Varoused
p238
s(I626
I1482
tp239
Vcrafty
p240
s(I743
I2348
tp241
Vbeloved
p242
s(I485
I2349
tp243
Vcheery
p244
s(I2536
I2750
tp245
Vdeluxe
p246
s(I219
I574
tp247
Vferocious
p248
s(I2913
I3243
tp249
Vdifficult
p250
s(I1484
I2781
tp251
Vapparent
p252
s(I1555
I1810
tp253
Vred
p254
s(I2578
I3256
tp255
Vaged
p256
s(I366
I2738
tp257
Vextreme
p258
s(I1129
I3280
tp259
Vbitty
p260
s(I2118
I2942
tp261
Vbushy
p262
s(I275
I1378
tp263
Vdiffident
p264
s(I293
I3226
tp265
Vdizzy
p266
s(I781
I883
tp267
Vfavorite
p268
s(I1548
I3325
tp269
Vbogus
p270
s(I1418
I2445
tp271
Vantique
p272
s(I1101
I2593
tp273
Vbarbarous
p274
s(I1752
I3325
tp275
Vbogus
p276
s(I1789
I3230
tp277
Vnull
p278
s(I512
I2477
tp279
Vbare
p280
s(I1033
I2492
tp281
Vcalm
p282
s(I316
I2946
tp283
Velectrifying
p284
s(I650
I3054
tp285
Vbrokenhearted
p286
s(I2045
I2978
tp287
Vexcellent
p288
s(I2089
I2213
tp289
Vfifth
p290
s(I1503
I3139
tp291
Veveryday
p292
s(I1848
I2781
tp293
Vapparent
p294
s(I493
I1227
tp295
Vawful
p296
s(I635
I1568
tp297
Vlarge
p298
s(I2952
I3280
tp299
Vbitty
p300
s(I1406
I2997
tp301
Vace
p302
s(I1087
I2052
tp303
Vicky
p304
s(I2135
I2808
tp305
Vcockamamie
p306
s(I1129
I2952
tp307
Vbitty
p308
s(I3191
I3454
tp309
Vcoincident
p310
s(I1548
I1752
tp311
Vbogus
p312
s(I358
I1763
tp313
Vdisgusting
p314
s(I1518
I1555
tp315
Vred
p316
s(I721
I1432
tp317
Vbigheaded
p318
s(I899
I3201
tp319
Vicky
p320
s(I468
I777
tp321
Vall_right
p322
s(I718
I1588
tp323
Vcrisp
p324
s(I1240
I2784
tp325
Vextremist
p326
s(I899
I2052
tp327
Vicky
p328
s.